target datalayout = "e-m:e-p270:32:32-p271:32:32-p272:64:64-i64:64-i128:128-f80:128-n8:16:32:64-S128"
target triple = "x86_64-pc-linux-gnu"

%struct.WaveChunk = type { i32, i32, i64, ptr, i64 }

; Function Attrs: nounwind uwtable
define internal void @WaveFreeChunkData(ptr noundef %0) #0 {
  %2 = alloca ptr, align 8
  store ptr %0, ptr %2, align 8
  %3 = load ptr, ptr %2, align 8
  %4 = getelementptr inbounds nuw %struct.WaveChunk, ptr %3, i32 0, i32 3
  %5 = load ptr, ptr %4, align 8
  %6 = icmp ne ptr %5, null
  br i1 %6, label %7, label %13

7:                                                ; preds = %1
  %8 = load ptr, ptr %2, align 8
  %9 = getelementptr inbounds nuw %struct.WaveChunk, ptr %8, i32 0, i32 3
  %10 = load ptr, ptr %9, align 8
  call void @SDL_free_REAL(ptr noundef %10)
  %11 = load ptr, ptr %2, align 8
  %12 = getelementptr inbounds nuw %struct.WaveChunk, ptr %11, i32 0, i32 3
  store ptr null, ptr %12, align 8
  br label %13

13:                                               ; preds = %7, %1
  %14 = load ptr, ptr %2, align 8
  %15 = getelementptr inbounds nuw %struct.WaveChunk, ptr %14, i32 0, i32 4
  store i64 0, ptr %15, align 8
  ret void
}

; Function Attrs: nounwind uwtable
define internal i32 @WaveReadPartialChunkData(ptr noundef %0, ptr noundef %1, i64 noundef %2) #0 {
  %4 = alloca i32, align 4
  %5 = alloca ptr, align 8
  %6 = alloca ptr, align 8
  %7 = alloca i64, align 8
  store ptr %0, ptr %5, align 8
  store ptr %1, ptr %6, align 8
  store i64 %2, ptr %7, align 8
  %8 = load ptr, ptr %6, align 8
  call void @WaveFreeChunkData(ptr noundef %8)
  %9 = load i64, ptr %7, align 8
  %10 = load ptr, ptr %6, align 8
  %11 = getelementptr inbounds nuw %struct.WaveChunk, ptr %10, i32 0, i32 1
  %12 = load i32, ptr %11, align 4
  %13 = zext i32 %12 to i64
  %14 = icmp ugt i64 %9, %13
  br i1 %14, label %15, label %20

15:                                               ; preds = %3
  %16 = load ptr, ptr %6, align 8
  %17 = getelementptr inbounds nuw %struct.WaveChunk, ptr %16, i32 0, i32 1
  %18 = load i32, ptr %17, align 4
  %19 = zext i32 %18 to i64
  store i64 %19, ptr %7, align 8
  br label %20

20:                                               ; preds = %15, %3
  %21 = load i64, ptr %7, align 8
  %22 = icmp ugt i64 %21, 0
  br i1 %22, label %23, label %60

23:                                               ; preds = %20
  %24 = load i64, ptr %7, align 8
  %25 = call noalias ptr @SDL_malloc_REAL(i64 noundef %24)
  %26 = load ptr, ptr %6, align 8
  %27 = getelementptr inbounds nuw %struct.WaveChunk, ptr %26, i32 0, i32 3
  store ptr %25, ptr %27, align 8
  %28 = load ptr, ptr %6, align 8
  %29 = getelementptr inbounds nuw %struct.WaveChunk, ptr %28, i32 0, i32 3
  %30 = load ptr, ptr %29, align 8
  %31 = icmp ne ptr %30, null
  br i1 %31, label %33, label %32

32:                                               ; preds = %23
  store i32 -1, ptr %4, align 4
  br label %61

33:                                               ; preds = %23
  %34 = load ptr, ptr %5, align 8
  %35 = load ptr, ptr %6, align 8
  %36 = getelementptr inbounds nuw %struct.WaveChunk, ptr %35, i32 0, i32 2
  %37 = load i64, ptr %36, align 8
  %38 = call i64 @SDL_SeekIO_REAL(ptr noundef %34, i64 noundef %37, i32 noundef 0)
  %39 = load ptr, ptr %6, align 8
  %40 = getelementptr inbounds nuw %struct.WaveChunk, ptr %39, i32 0, i32 2
  %41 = load i64, ptr %40, align 8
  %42 = icmp ne i64 %38, %41
  br i1 %42, label %43, label %44

43:                                               ; preds = %33
  store i32 -2, ptr %4, align 4
  br label %61

44:                                               ; preds = %33
  %45 = load ptr, ptr %5, align 8
  %46 = load ptr, ptr %6, align 8
  %47 = getelementptr inbounds nuw %struct.WaveChunk, ptr %46, i32 0, i32 3
  %48 = load ptr, ptr %47, align 8
  %49 = load i64, ptr %7, align 8
  %50 = call i64 @SDL_ReadIO_REAL(ptr noundef %45, ptr noundef %48, i64 noundef %49)
  %51 = load ptr, ptr %6, align 8
  %52 = getelementptr inbounds nuw %struct.WaveChunk, ptr %51, i32 0, i32 4
  store i64 %50, ptr %52, align 8
  %53 = load ptr, ptr %6, align 8
  %54 = getelementptr inbounds nuw %struct.WaveChunk, ptr %53, i32 0, i32 4
  %55 = load i64, ptr %54, align 8
  %56 = load i64, ptr %7, align 8
  %57 = icmp ne i64 %55, %56
  br i1 %57, label %58, label %59

58:                                               ; preds = %44
  br label %59

59:                                               ; preds = %58, %44
  br label %60

60:                                               ; preds = %59, %20
  store i32 0, ptr %4, align 4
  br label %61

61:                                               ; preds = %60, %43, %32
  %62 = load i32, ptr %4, align 4
  ret i32 %62
}

; Function Attrs: nounwind uwtable
define internal i32 @WaveReadChunkData(ptr noundef %0, ptr noundef %1) #0 {
  %3 = alloca ptr, align 8
  %4 = alloca ptr, align 8
  store ptr %0, ptr %3, align 8
  store ptr %1, ptr %4, align 8
  %5 = load ptr, ptr %3, align 8
  %6 = load ptr, ptr %4, align 8
  %7 = load ptr, ptr %4, align 8
  %8 = getelementptr inbounds nuw %struct.WaveChunk, ptr %7, i32 0, i32 1
  %9 = load i32, ptr %8, align 4
  %10 = zext i32 %9 to i64
  %11 = call i32 @WaveReadPartialChunkData(ptr noundef %5, ptr noundef %6, i64 noundef %10)
  ret i32 %11
}