; Function Attrs: nounwind uwtable
define internal fastcc range(i32 -2, 1) i32 @WaveReadChunkData(ptr noundef nonnull %0, ptr noundef nonnull captures(none) initializes((24, 32)) %1) unnamed_addr #0 {
  %3 = getelementptr inbounds nuw i8, ptr %1, i64 4
  %4 = load i32, ptr %3, align 4
  %5 = getelementptr inbounds nuw i8, ptr %1, i64 16
  %6 = load ptr, ptr %5, align 8
  %.not.i.i = icmp eq ptr %6, null
  br i1 %.not.i.i, label %WaveFreeChunkData.exit.i, label %7

7:                                                ; preds = %2
  tail call void @SDL_free_REAL(ptr noundef nonnull %6) #8
  store ptr null, ptr %5, align 8
  %.pre = load i32, ptr %3, align 4
  br label %WaveFreeChunkData.exit.i

WaveFreeChunkData.exit.i:                         ; preds = %7, %2
  %8 = phi i32 [ %.pre, %7 ], [ %4, %2 ]
  %9 = getelementptr inbounds nuw i8, ptr %1, i64 24
  store i64 0, ptr %9, align 8
  %10 = tail call i32 @llvm.umin.i32(i32 %4, i32 %8)
  %spec.select.i = zext i32 %10 to i64
  %.not.i = icmp eq i32 %10, 0
  br i1 %.not.i, label %WaveReadPartialChunkData.exit, label %11

11:                                               ; preds = %WaveFreeChunkData.exit.i
  %12 = tail call noalias ptr @SDL_malloc_REAL(i64 noundef %spec.select.i) #8
  store ptr %12, ptr %5, align 8
  %.not20.i = icmp eq ptr %12, null
  br i1 %.not20.i, label %WaveReadPartialChunkData.exit, label %13

13:                                               ; preds = %11
  %14 = getelementptr inbounds nuw i8, ptr %1, i64 8
  %15 = load i64, ptr %14, align 8
  %16 = tail call i64 @SDL_SeekIO_REAL(ptr noundef nonnull %0, i64 noundef %15, i32 noundef 0) #8
  %17 = load i64, ptr %14, align 8
  %.not21.i = icmp eq i64 %16, %17
  br i1 %.not21.i, label %18, label %WaveReadPartialChunkData.exit

18:                                               ; preds = %13
  %19 = load ptr, ptr %5, align 8
  %20 = tail call i64 @SDL_ReadIO_REAL(ptr noundef nonnull %0, ptr noundef %19, i64 noundef %spec.select.i) #8
  store i64 %20, ptr %9, align 8
  br label %WaveReadPartialChunkData.exit

WaveReadPartialChunkData.exit:                    ; preds = %WaveFreeChunkData.exit.i, %11, %13, %18
  %.017.i = phi i32 [ -1, %11 ], [ -2, %13 ], [ 0, %18 ], [ 0, %WaveFreeChunkData.exit.i ]
  ret i32 %.017.i
}